target datalayout = "e-m:e-p270:32:32-p271:32:32-p272:64:64-i64:64-i128:128-f80:128-n8:16:32:64-S128"
target triple = "x86_64-unknown-linux-gnu"

%struct.VirtIODevice = type { %struct.DeviceState, ptr, i8, i8, i16, i64, i64, i64, i64, ptr, i16, i32, i32, ptr, %struct.MemoryListener, i16, i8, i8, i8, i8, i8, i8, i8, i8, i8, ptr, ptr, i8, i8, ptr, ptr, %union.anon.1, %struct.EventNotifier, i8 }
%struct.DeviceState = type { %struct.Object, ptr, ptr, i8, i8, i64, ptr, i32, i8, ptr, %struct.NamedGPIOListHead, %struct.NamedClockListHead, %struct.BusStateHead, i32, i32, i32, %struct.ResettableState, ptr, %struct.MemReentrancyGuard }
%struct.Object = type { ptr, ptr, ptr, i32, ptr }
%struct.NamedGPIOListHead = type { ptr }
%struct.NamedClockListHead = type { ptr }
%struct.BusStateHead = type { ptr }
%struct.ResettableState = type { i32, i8, i8 }
%struct.MemReentrancyGuard = type { i8 }
%struct.MemoryListener = type { ptr, ptr, ptr, ptr, ptr, ptr, ptr, ptr, ptr, ptr, ptr, ptr, ptr, ptr, ptr, ptr, ptr, i32, ptr, ptr, %union.anon, %union.anon.0 }
%union.anon = type { %struct.QTailQLink }
%struct.QTailQLink = type { ptr, ptr }
%union.anon.0 = type { %struct.QTailQLink }
%union.anon.1 = type { %struct.QTailQLink }
%struct.EventNotifier = type { i32, i32, i8 }
%struct.VirtQueue = type { %struct.VRing, ptr, i16, i8, i16, i8, i16, i8, i16, i8, i8, i16, i32, i16, ptr, ptr, %struct.EventNotifier, %struct.EventNotifier, i8, %struct.anon }
%struct.VRing = type { i32, i32, i32, i64, i64, i64, ptr }
%struct.anon = type { ptr, ptr }
%struct.VirtioBusClass = type { %struct.BusClass, ptr, ptr, ptr, ptr, ptr, ptr, ptr, ptr, ptr, ptr, ptr, ptr, ptr, ptr, ptr, ptr, ptr, ptr, ptr, ptr, i8, ptr, ptr }
%struct.BusClass = type { %struct.ObjectClass, ptr, ptr, ptr, ptr, ptr, ptr, ptr, i32, i32 }
%struct.ObjectClass = type { ptr, ptr, [4 x ptr], [4 x ptr], ptr, ptr }

@.str.42 = private unnamed_addr constant [27 x i8] c"../qemu/hw/virtio/virtio.c\00", align 1
@.str.46 = private unnamed_addr constant [52 x i8] c"tried to modify queue alignment for virtio-1 device\00", align 1
@.str.47 = private unnamed_addr constant [32 x i8] c"k->has_variable_vring_alignment\00", align 1
@__PRETTY_FUNCTION__.virtio_queue_set_align = private unnamed_addr constant [54 x i8] c"void virtio_queue_set_align(VirtIODevice *, int, int)\00", align 1
@.str.64 = private unnamed_addr constant [10 x i8] c"fbit < 64\00", align 1
@.str.65 = private unnamed_addr constant [105 x i8] c"/home/dtcxzyw/WorkSpace/Projects/compilers/llvm-opt-benchmark/bench/qemu/qemu/include/hw/virtio/virtio.h\00", align 1
@__PRETTY_FUNCTION__.virtio_has_feature = private unnamed_addr constant [49 x i8] c"_Bool virtio_has_feature(uint64_t, unsigned int)\00", align 1
@.str.96 = private unnamed_addr constant [7 x i8] c"device\00", align 1
@.str.97 = private unnamed_addr constant [101 x i8] c"/home/dtcxzyw/WorkSpace/Projects/compilers/llvm-opt-benchmark/bench/qemu/qemu/include/hw/qdev-core.h\00", align 1
@__func__.DEVICE = private unnamed_addr constant [7 x i8] c"DEVICE\00", align 1
@.str.98 = private unnamed_addr constant [11 x i8] c"virtio-bus\00", align 1
@.str.99 = private unnamed_addr constant [109 x i8] c"/home/dtcxzyw/WorkSpace/Projects/compilers/llvm-opt-benchmark/bench/qemu/qemu/include/hw/virtio/virtio-bus.h\00", align 1
@__func__.VIRTIO_BUS_GET_CLASS = private unnamed_addr constant [21 x i8] c"VIRTIO_BUS_GET_CLASS\00", align 1

; Function Attrs: nounwind sspstrong uwtable
define internal i64 @vring_align(i64 noundef %addr, i64 noundef %align) #0 {
entry:
  %addr.addr = alloca i64, align 8
  %align.addr = alloca i64, align 8
  store i64 %addr, ptr %addr.addr, align 8
  store i64 %align, ptr %align.addr, align 8
  %0 = load i64, ptr %addr.addr, align 8
  %1 = load i64, ptr %align.addr, align 8
  %add = add i64 %0, %1
  %sub = sub i64 %add, 1
  %2 = load i64, ptr %align.addr, align 8
  %div = udiv i64 %sub, %2
  %3 = load i64, ptr %align.addr, align 8
  %mul = mul i64 %div, %3
  ret i64 %mul
}

; Function Attrs: nounwind sspstrong uwtable
define internal zeroext i1 @virtio_has_feature(i64 noundef %features, i32 noundef %fbit) #0 {
entry:
  %features.addr = alloca i64, align 8
  %fbit.addr = alloca i32, align 4
  store i64 %features, ptr %features.addr, align 8
  store i32 %fbit, ptr %fbit.addr, align 4
  %0 = load i32, ptr %fbit.addr, align 4
  %cmp = icmp ult i32 %0, 64
  br i1 %cmp, label %if.then, label %if.else

if.then:                                          ; preds = %entry
  br label %if.end

if.else:                                          ; preds = %entry
  call void @__assert_fail(ptr noundef @.str.64, ptr noundef @.str.65, i32 noundef 422, ptr noundef @__PRETTY_FUNCTION__.virtio_has_feature) #13
  unreachable

if.end:                                           ; preds = %if.then
  %1 = load i64, ptr %features.addr, align 8
  %2 = load i32, ptr %fbit.addr, align 4
  %sh_prom = zext i32 %2 to i64
  %shl = shl i64 1, %sh_prom
  %and = and i64 %1, %shl
  %tobool = icmp ne i64 %and, 0
  %lnot = xor i1 %tobool, true
  %lnot1 = xor i1 %lnot, true
  ret i1 %lnot1
}

; Function Attrs: nounwind sspstrong uwtable
define dso_local void @virtio_queue_update_rings(ptr noundef %vdev, i32 noundef %n) #0 {
entry:
  %vdev.addr = alloca ptr, align 8
  %n.addr = alloca i32, align 4
  %vring = alloca ptr, align 8
  store ptr %vdev, ptr %vdev.addr, align 8
  store i32 %n, ptr %n.addr, align 4
  %0 = load ptr, ptr %vdev.addr, align 8
  %vq = getelementptr inbounds %struct.VirtIODevice, ptr %0, i32 0, i32 13
  %1 = load ptr, ptr %vq, align 8
  %2 = load i32, ptr %n.addr, align 4
  %idxprom = sext i32 %2 to i64
  %arrayidx = getelementptr %struct.VirtQueue, ptr %1, i64 %idxprom
  %vring1 = getelementptr inbounds %struct.VirtQueue, ptr %arrayidx, i32 0, i32 0
  store ptr %vring1, ptr %vring, align 8
  %3 = load ptr, ptr %vring, align 8
  %num = getelementptr inbounds %struct.VRing, ptr %3, i32 0, i32 0
  %4 = load i32, ptr %num, align 8
  %tobool = icmp ne i32 %4, 0
  br i1 %tobool, label %lor.lhs.false, label %if.then

lor.lhs.false:                                    ; preds = %entry
  %5 = load ptr, ptr %vring, align 8
  %desc = getelementptr inbounds %struct.VRing, ptr %5, i32 0, i32 3
  %6 = load i64, ptr %desc, align 8
  %tobool2 = icmp ne i64 %6, 0
  br i1 %tobool2, label %lor.lhs.false3, label %if.then

lor.lhs.false3:                                   ; preds = %lor.lhs.false
  %7 = load ptr, ptr %vring, align 8
  %align = getelementptr inbounds %struct.VRing, ptr %7, i32 0, i32 2
  %8 = load i32, ptr %align, align 8
  %tobool4 = icmp ne i32 %8, 0
  br i1 %tobool4, label %if.end, label %if.then

if.then:                                          ; preds = %lor.lhs.false3, %lor.lhs.false, %entry
  br label %return

if.end:                                           ; preds = %lor.lhs.false3
  %9 = load ptr, ptr %vring, align 8
  %desc5 = getelementptr inbounds %struct.VRing, ptr %9, i32 0, i32 3
  %10 = load i64, ptr %desc5, align 8
  %11 = load ptr, ptr %vring, align 8
  %num6 = getelementptr inbounds %struct.VRing, ptr %11, i32 0, i32 0
  %12 = load i32, ptr %num6, align 8
  %conv = zext i32 %12 to i64
  %mul = mul i64 %conv, 16
  %add = add i64 %10, %mul
  %13 = load ptr, ptr %vring, align 8
  %avail = getelementptr inbounds %struct.VRing, ptr %13, i32 0, i32 4
  store i64 %add, ptr %avail, align 8
  %14 = load ptr, ptr %vring, align 8
  %avail7 = getelementptr inbounds %struct.VRing, ptr %14, i32 0, i32 4
  %15 = load i64, ptr %avail7, align 8
  %16 = load ptr, ptr %vring, align 8
  %num8 = getelementptr inbounds %struct.VRing, ptr %16, i32 0, i32 0
  %17 = load i32, ptr %num8, align 8
  %conv9 = zext i32 %17 to i64
  %18 = mul i64 %conv9, 2
  %19 = add i64 4, %18
  %add10 = add i64 %15, %19
  %20 = load ptr, ptr %vring, align 8
  %align11 = getelementptr inbounds %struct.VRing, ptr %20, i32 0, i32 2
  %21 = load i32, ptr %align11, align 8
  %conv12 = zext i32 %21 to i64
  %call = call i64 @vring_align(i64 noundef %add10, i64 noundef %conv12)
  %22 = load ptr, ptr %vring, align 8
  %used = getelementptr inbounds %struct.VRing, ptr %22, i32 0, i32 5
  store i64 %call, ptr %used, align 8
  %23 = load ptr, ptr %vdev.addr, align 8
  %24 = load i32, ptr %n.addr, align 4
  call void @virtio_init_region_cache(ptr noundef %23, i32 noundef %24)
  br label %return

return:                                           ; preds = %if.end, %if.then
  ret void
}

; Function Attrs: nounwind sspstrong uwtable
define internal zeroext i1 @virtio_vdev_has_feature(ptr noundef %vdev, i32 noundef %fbit) #0 {
entry:
  %vdev.addr = alloca ptr, align 8
  %fbit.addr = alloca i32, align 4
  store ptr %vdev, ptr %vdev.addr, align 8
  store i32 %fbit, ptr %fbit.addr, align 4
  %0 = load ptr, ptr %vdev.addr, align 8
  %guest_features = getelementptr inbounds %struct.VirtIODevice, ptr %0, i32 0, i32 6
  %1 = load i64, ptr %guest_features, align 8
  %2 = load i32, ptr %fbit.addr, align 4
  %call = call zeroext i1 @virtio_has_feature(i64 noundef %1, i32 noundef %2)
  ret i1 %call
}

; Function Attrs: nounwind sspstrong uwtable
define internal ptr @VIRTIO_BUS_GET_CLASS(ptr noundef %obj) #0 {
entry:
  %obj.addr = alloca ptr, align 8
  store ptr %obj, ptr %obj.addr, align 8
  %0 = load ptr, ptr %obj.addr, align 8
  %call = call ptr @object_get_class(ptr noundef %0)
  %call1 = call ptr @object_class_dynamic_cast_assert(ptr noundef %call, ptr noundef @.str.98, ptr noundef @.str.99, i32 noundef 36, ptr noundef @__func__.VIRTIO_BUS_GET_CLASS)
  ret ptr %call1
}

; Function Attrs: nounwind sspstrong uwtable
define internal ptr @DEVICE(ptr noundef %obj) #0 {
entry:
  %obj.addr = alloca ptr, align 8
  store ptr %obj, ptr %obj.addr, align 8
  %0 = load ptr, ptr %obj.addr, align 8
  %call = call ptr @object_dynamic_cast_assert(ptr noundef %0, ptr noundef @.str.96, ptr noundef @.str.97, i32 noundef 77, ptr noundef @__func__.DEVICE)
  ret ptr %call
}

; Function Attrs: nounwind sspstrong uwtable
define dso_local void @virtio_queue_set_align(ptr noundef %vdev, i32 noundef %n, i32 noundef %align) #0 {
entry:
  %vdev.addr = alloca ptr, align 8
  %n.addr = alloca i32, align 4
  %align.addr = alloca i32, align 4
  %qbus = alloca ptr, align 8
  %k = alloca ptr, align 8
  store ptr %vdev, ptr %vdev.addr, align 8
  store i32 %n, ptr %n.addr, align 4
  store i32 %align, ptr %align.addr, align 4
  %0 = load ptr, ptr %vdev.addr, align 8
  %call = call ptr @DEVICE(ptr noundef %0)
  %call1 = call ptr @qdev_get_parent_bus(ptr noundef %call)
  store ptr %call1, ptr %qbus, align 8
  %1 = load ptr, ptr %qbus, align 8
  %call2 = call ptr @VIRTIO_BUS_GET_CLASS(ptr noundef %1)
  store ptr %call2, ptr %k, align 8
  %2 = load ptr, ptr %vdev.addr, align 8
  %call3 = call zeroext i1 @virtio_vdev_has_feature(ptr noundef %2, i32 noundef 32)
  br i1 %call3, label %if.then, label %if.end

if.then:                                          ; preds = %entry
  call void (ptr, ...) @error_report(ptr noundef @.str.46)
  br label %if.end9

if.end:                                           ; preds = %entry
  %3 = load ptr, ptr %k, align 8
  %has_variable_vring_alignment = getelementptr inbounds %struct.VirtioBusClass, ptr %3, i32 0, i32 21
  %4 = load i8, ptr %has_variable_vring_alignment, align 8
  %tobool = trunc i8 %4 to i1
  br i1 %tobool, label %if.then4, label %if.else

if.then4:                                         ; preds = %if.end
  br label %if.end5

if.else:                                          ; preds = %if.end
  call void @__assert_fail(ptr noundef @.str.47, ptr noundef @.str.42, i32 noundef 2250, ptr noundef @__PRETTY_FUNCTION__.virtio_queue_set_align) #13
  unreachable

if.end5:                                          ; preds = %if.then4
  %5 = load i32, ptr %align.addr, align 4
  %tobool6 = icmp ne i32 %5, 0
  br i1 %tobool6, label %if.then7, label %if.end9

if.then7:                                         ; preds = %if.end5
  %6 = load i32, ptr %align.addr, align 4
  %7 = load ptr, ptr %vdev.addr, align 8
  %vq = getelementptr inbounds %struct.VirtIODevice, ptr %7, i32 0, i32 13
  %8 = load ptr, ptr %vq, align 8
  %9 = load i32, ptr %n.addr, align 4
  %idxprom = sext i32 %9 to i64
  %arrayidx = getelementptr %struct.VirtQueue, ptr %8, i64 %idxprom
  %vring = getelementptr inbounds %struct.VirtQueue, ptr %arrayidx, i32 0, i32 0
  %align8 = getelementptr inbounds %struct.VRing, ptr %vring, i32 0, i32 2
  store i32 %6, ptr %align8, align 8
  %10 = load ptr, ptr %vdev.addr, align 8
  %11 = load i32, ptr %n.addr, align 4
  call void @virtio_queue_update_rings(ptr noundef %10, i32 noundef %11)
  br label %if.end9

if.end9:                                          ; preds = %if.then7, %if.end5, %if.then
  ret void
}