; Function Attrs: nounwind sspstrong uwtable
define dso_local void @virtio_queue_set_align(ptr noundef %vdev, i32 noundef %n, i32 noundef %align) local_unnamed_addr #0 {
entry:
  %call.i = tail call ptr @object_dynamic_cast_assert(ptr noundef %vdev, ptr noundef nonnull @.str.96, ptr noundef nonnull @.str.97, i32 noundef 77, ptr noundef nonnull @__func__.DEVICE) #23
  %call1 = tail call ptr @qdev_get_parent_bus(ptr noundef %call.i) #23
  %call.i6 = tail call ptr @object_get_class(ptr noundef %call1) #23
  %call1.i = tail call ptr @object_class_dynamic_cast_assert(ptr noundef %call.i6, ptr noundef nonnull @.str.98, ptr noundef nonnull @.str.99, i32 noundef 36, ptr noundef nonnull @__func__.VIRTIO_BUS_GET_CLASS) #23
  %0 = getelementptr i8, ptr %vdev, i64 184
  %vdev.val = load i64, ptr %0, align 8
  %and.i.i = and i64 %vdev.val, 4294967296
  %tobool.i.i.not = icmp eq i64 %and.i.i, 0
  br i1 %tobool.i.i.not, label %if.end, label %if.then

if.then:                                          ; preds = %entry
  tail call void (ptr, ...) @error_report(ptr noundef nonnull @.str.46) #23
  br label %if.end9

if.end:                                           ; preds = %entry
  %has_variable_vring_alignment = getelementptr inbounds nuw i8, ptr %call1.i, i64 320
  %1 = load i8, ptr %has_variable_vring_alignment, align 8
  %tobool = trunc i8 %1 to i1
  br i1 %tobool, label %if.end5, label %if.else

if.else:                                          ; preds = %if.end
  tail call void @__assert_fail(ptr noundef nonnull @.str.47, ptr noundef nonnull @.str.42, i32 noundef 2250, ptr noundef nonnull @__PRETTY_FUNCTION__.virtio_queue_set_align) #24
  unreachable

if.end5:                                          ; preds = %if.end
  %tobool6.not = icmp eq i32 %align, 0
  br i1 %tobool6.not, label %if.end9, label %if.then7

if.then7:                                         ; preds = %if.end5
  %vq = getelementptr inbounds nuw i8, ptr %vdev, i64 232
  %2 = load ptr, ptr %vq, align 8
  %idxprom = sext i32 %n to i64
  %align8 = getelementptr %struct.VirtQueue, ptr %2, i64 %idxprom, i32 0, i32 2
  store i32 %align, ptr %align8, align 8
  %3 = load ptr, ptr %vq, align 8
  %arrayidx.i = getelementptr %struct.VirtQueue, ptr %3, i64 %idxprom
  %4 = load i32, ptr %arrayidx.i, align 8
  %tobool.not.i = icmp eq i32 %4, 0
  br i1 %tobool.not.i, label %if.end9, label %lor.lhs.false.i

lor.lhs.false.i:                                  ; preds = %if.then7
  %desc.i = getelementptr inbounds nuw i8, ptr %arrayidx.i, i64 16
  %5 = load i64, ptr %desc.i, align 8
  %tobool2.not.i = icmp eq i64 %5, 0
  br i1 %tobool2.not.i, label %if.end9, label %lor.lhs.false3.i

lor.lhs.false3.i:                                 ; preds = %lor.lhs.false.i
  %align.i = getelementptr inbounds nuw i8, ptr %arrayidx.i, i64 8
  %6 = load i32, ptr %align.i, align 8
  %tobool4.not.i = icmp eq i32 %6, 0
  br i1 %tobool4.not.i, label %if.end9, label %if.end.i

if.end.i:                                         ; preds = %lor.lhs.false3.i
  %conv.i = zext i32 %4 to i64
  %mul.i = shl nuw nsw i64 %conv.i, 4
  %add.i = add i64 %5, %mul.i
  %avail.i = getelementptr inbounds nuw i8, ptr %arrayidx.i, i64 24
  store i64 %add.i, ptr %avail.i, align 8
  %7 = shl nuw nsw i64 %conv.i, 1
  %conv12.i = zext i32 %6 to i64
  %add10.i = add nuw nsw i64 %7, 3
  %add.i.i = add i64 %add10.i, %add.i
  %sub.i.i = add i64 %add.i.i, %conv12.i
  %8 = urem i64 %sub.i.i, %conv12.i
  %mul.i.i = sub nuw i64 %sub.i.i, %8
  %used.i = getelementptr inbounds nuw i8, ptr %arrayidx.i, i64 32
  store i64 %mul.i.i, ptr %used.i, align 8
  tail call void @virtio_init_region_cache(ptr noundef nonnull %vdev, i32 noundef %n)
  br label %if.end9

if.end9:                                          ; preds = %if.end.i, %lor.lhs.false3.i, %lor.lhs.false.i, %if.then7, %if.end5, %if.then
  ret void
}